; Function Attrs: nounwind uwtable
define void @PMIx_Pdata_free(ptr noundef captures(address_is_null) %0, i64 noundef %1) local_unnamed_addr #6 {
  %.not.i = icmp eq ptr %0, null
  br i1 %.not.i, label %pmix_bfrops_base_tma_pdata_free.exit, label %.preheader.i

.preheader.i:                                     ; preds = %2
  %.not2.i = icmp eq i64 %1, 0
  br i1 %.not2.i, label %._crit_edge.i, label %.lr.ph.i

._crit_edge.i:                                    ; preds = %.lr.ph.i, %.preheader.i
  tail call void @free(ptr noundef nonnull %0) #44
  br label %pmix_bfrops_base_tma_pdata_free.exit

.lr.ph.i:                                         ; preds = %.preheader.i, %.lr.ph.i
  %.01.i = phi i64 [ %4, %.lr.ph.i ], [ 0, %.preheader.i ]
  %3 = getelementptr inbounds nuw %struct.pmix_pdata, ptr %0, i64 %.01.i, i32 2
  tail call fastcc void @pmix_bfrops_base_tma_value_destruct(ptr noundef nonnull %3)
  %4 = add nuw i64 %.01.i, 1
  %exitcond.not.i = icmp eq i64 %4, %1
  br i1 %exitcond.not.i, label %._crit_edge.i, label %.lr.ph.i, !llvm.loop !119

pmix_bfrops_base_tma_pdata_free.exit:             ; preds = %2, %._crit_edge.i
  ret void
}